; Function Attrs: mustprogress uwtable
define void @_ZN6google8protobuf12FieldOptions12InternalSwapEPS1_(ptr noundef nonnull align 8 dereferenceable(144) %this, ptr noalias noundef %other) local_unnamed_addr #3 align 2 {
entry:
  %0 = getelementptr inbounds i8, ptr %this, i64 16
  %1 = getelementptr inbounds i8, ptr %other, i64 16
  tail call void @_ZN6google8protobuf8internal12ExtensionSet12InternalSwapEPS2_(ptr noundef nonnull align 8 dereferenceable(24) %0, ptr noundef nonnull %1)
  %_internal_metadata_ = getelementptr inbounds i8, ptr %this, i64 8
  %_internal_metadata_3 = getelementptr inbounds i8, ptr %other, i64 8
  %2 = load i64, ptr %_internal_metadata_, align 8
  %3 = load i64, ptr %_internal_metadata_3, align 8
  store i64 %3, ptr %_internal_metadata_, align 8
  store i64 %2, ptr %_internal_metadata_3, align 8
  %_has_bits_ = getelementptr inbounds i8, ptr %this, i64 40
  %_has_bits_4 = getelementptr inbounds i8, ptr %other, i64 40
  %4 = load i32, ptr %_has_bits_, align 8
  %5 = load i32, ptr %_has_bits_4, align 4
  store i32 %5, ptr %_has_bits_, align 8
  store i32 %4, ptr %_has_bits_4, align 4
  %targets_ = getelementptr inbounds i8, ptr %this, i64 48
  %targets_6 = getelementptr inbounds i8, ptr %other, i64 48
  tail call void @_ZN6google8protobuf8internal7memswapILm16EEEvPcS3_(ptr noundef nonnull %targets_, ptr noundef nonnull %targets_6)
  %edition_defaults_ = getelementptr inbounds i8, ptr %this, i64 64
  %edition_defaults_7 = getelementptr inbounds i8, ptr %other, i64 64
  tail call void @_ZN6google8protobuf8internal7memswapILm16EEEvPcS3_(ptr noundef nonnull %edition_defaults_, ptr noundef nonnull %edition_defaults_7)
  %uninterpreted_option_ = getelementptr inbounds i8, ptr %this, i64 88
  %uninterpreted_option_8 = getelementptr inbounds i8, ptr %other, i64 88
  tail call void @_ZN6google8protobuf8internal7memswapILm16EEEvPcS3_(ptr noundef nonnull %uninterpreted_option_, ptr noundef nonnull %uninterpreted_option_8)
  %features_ = getelementptr inbounds i8, ptr %this, i64 112
  %features_9 = getelementptr i8, ptr %other, i64 112
  tail call void @llvm.experimental.noalias.scope.decl(metadata !127)
  tail call void @llvm.experimental.noalias.scope.decl(metadata !130)
  br label %for.body.i.i

for.body.i.i:                                     ; preds = %for.body.i.i, %entry
  %__first2.addr.07.i.i = phi ptr [ %incdec.ptr1.i.i, %for.body.i.i ], [ %features_9, %entry ]
  %__first1.addr.06.i.idx.i = phi i64 [ %__first1.addr.06.i.add.i, %for.body.i.i ], [ 0, %entry ]
  %__first1.addr.06.i.ptr.i = getelementptr inbounds i8, ptr %features_, i64 %__first1.addr.06.i.idx.i
  %6 = load i8, ptr %__first1.addr.06.i.ptr.i, align 1, !alias.scope !127, !noalias !130
  %7 = load i8, ptr %__first2.addr.07.i.i, align 1, !alias.scope !130, !noalias !127
  store i8 %7, ptr %__first1.addr.06.i.ptr.i, align 1, !alias.scope !127, !noalias !130
  store i8 %6, ptr %__first2.addr.07.i.i, align 1, !alias.scope !130, !noalias !127
  %__first1.addr.06.i.add.i = add nuw nsw i64 %__first1.addr.06.i.idx.i, 1
  %incdec.ptr1.i.i = getelementptr inbounds i8, ptr %__first2.addr.07.i.i, i64 1
  %cmp.not.i.i = icmp eq i64 %__first1.addr.06.i.add.i, 28
  br i1 %cmp.not.i.i, label %_ZN6google8protobuf8internal7memswapILm28EEEvPcS3_.exit, label %for.body.i.i, !llvm.loop !45

_ZN6google8protobuf8internal7memswapILm28EEEvPcS3_.exit: ; preds = %for.body.i.i
  ret void
}